; Function Attrs: mustprogress nofree norecurse nosync nounwind willreturn memory(argmem: read) uwtable
define hidden noundef range(i64 -128102389400760775, 128102389400760776) i64 @_ZNK4cvc58internal13SygusDatatype18getNumConstructorsEv(ptr noundef nonnull readonly align 8 captures(none) dereferenceable(472) %0) local_unnamed_addr #8 align 2 {
  %2 = getelementptr inbounds nuw i8, ptr %0, i64 8
  %3 = load ptr, ptr %2, align 8, !tbaa !18
  %4 = load ptr, ptr %0, align 8, !tbaa !15
  %5 = ptrtoint ptr %3 to i64
  %6 = ptrtoint ptr %4 to i64
  %7 = sub i64 %5, %6
  %8 = sdiv exact i64 %7, 72
  ret i64 %8
}